; Function Attrs: mustprogress nofree norecurse nosync nounwind willreturn memory(argmem: read) uwtable
define hidden noundef zeroext i1 @_ZN3sls12bv_lookahead18allow_costly_flipsENS0_9move_typeE(ptr noundef nonnull readonly align 8 captures(none) dereferenceable(400) %0, i32 noundef %1) local_unnamed_addr #10 align 2 {
  switch i32 %1, label %3 [
    i32 3, label %9
    i32 0, label %4
  ]

3:                                                ; preds = %2
  br label %9

4:                                                ; preds = %2
  %5 = getelementptr inbounds nuw i8, ptr %0, i64 168
  %6 = load i32, ptr %5, align 8, !tbaa !198
  %7 = urem i32 %6, 100
  %8 = icmp eq i32 %7, 0
  br label %9

9:                                                ; preds = %2, %4, %3
  %.0 = phi i1 [ false, %3 ], [ %8, %4 ], [ true, %2 ]
  ret i1 %.0
}